libmarisa.so.0 libmarisa0 #MINVER#
 _ZN6marisa10scoped_ptrINS_8grimoire4trie9LoudsTrieEED1Ev@Base 0.2.4-7
 _ZN6marisa10scoped_ptrINS_8grimoire4trie9LoudsTrieEED2Ev@Base 0.2.4-7
 _ZN6marisa12scoped_arrayINS0_IcEEED1Ev@Base 0.2.4-7
 _ZN6marisa12scoped_arrayINS0_IcEEED2Ev@Base 0.2.4-7
 _ZN6marisa4Trie3mapEPKvm@Base 0.2.4-7
 _ZN6marisa4Trie4loadEPKc@Base 0.2.4-7
 _ZN6marisa4Trie4mmapEPKc@Base 0.2.4-7
 _ZN6marisa4Trie4readEi@Base 0.2.4-7
 _ZN6marisa4Trie4swapERS0_@Base 0.2.4-7
 _ZN6marisa4Trie5buildERNS_6KeysetEi@Base 0.2.4-7
 _ZN6marisa4Trie5clearEv@Base 0.2.4-7
 _ZN6marisa4TrieC1Ev@Base 0.2.4-7
 _ZN6marisa4TrieC2Ev@Base 0.2.4-7
 _ZN6marisa4TrieD1Ev@Base 0.2.4-7
 _ZN6marisa4TrieD2Ev@Base 0.2.4-7
 _ZN6marisa4readERSiPNS_4TrieE@Base 0.2.4-7
 _ZN6marisa5Agent10init_stateEv@Base 0.2.4-7
 _ZN6marisa5Agent4swapERS0_@Base 0.2.4-7
 _ZN6marisa5Agent5clearEv@Base 0.2.4-7
 _ZN6marisa5Agent9set_queryEPKc@Base 0.2.4-7
 _ZN6marisa5Agent9set_queryEPKcm@Base 0.2.4-7
 _ZN6marisa5Agent9set_queryEm@Base 0.2.4-7
 _ZN6marisa5AgentC1Ev@Base 0.2.4-7
 _ZN6marisa5AgentC2Ev@Base 0.2.4-7
 _ZN6marisa5AgentD1Ev@Base 0.2.4-7
 _ZN6marisa5AgentD2Ev@Base 0.2.4-7
 _ZN6marisa5freadEP8_IO_FILEPNS_4TrieE@Base 0.2.4-7
 _ZN6marisa5writeERSoRKNS_4TrieE@Base 0.2.4-7
 _ZN6marisa6Keyset16append_key_blockEv@Base 0.2.4-7
 _ZN6marisa6Keyset17append_base_blockEv@Base 0.2.4-7
 _ZN6marisa6Keyset18append_extra_blockEm@Base 0.2.4-7
 _ZN6marisa6Keyset4swapERS0_@Base 0.2.4-7
 _ZN6marisa6Keyset5clearEv@Base 0.2.4-7
 _ZN6marisa6Keyset5resetEv@Base 0.2.4-7
 _ZN6marisa6Keyset7reserveEm@Base 0.2.4-7
 _ZN6marisa6Keyset9push_backEPKc@Base 0.2.4-7
 _ZN6marisa6Keyset9push_backEPKcmf@Base 0.2.4-7
 _ZN6marisa6Keyset9push_backERKNS_3KeyE@Base 0.2.4-7
 _ZN6marisa6Keyset9push_backERKNS_3KeyEc@Base 0.2.4-7
 _ZN6marisa6KeysetC1Ev@Base 0.2.4-7
 _ZN6marisa6KeysetC2Ev@Base 0.2.4-7
 _ZN6marisa6KeysetD1Ev@Base 0.2.4-7
 _ZN6marisa6KeysetD2Ev@Base 0.2.4-7
 _ZN6marisa6fwriteEP8_IO_FILERKNS_4TrieE@Base 0.2.4-7
 _ZN6marisa8grimoire2io6Mapper4openEPKc@Base 0.2.4-7
 _ZN6marisa8grimoire2io6Mapper4openEPKvm@Base 0.2.4-7
 _ZN6marisa8grimoire2io6Mapper4seekEm@Base 0.2.4-7
 _ZN6marisa8grimoire2io6Mapper4swapERS2_@Base 0.2.4-7
 _ZN6marisa8grimoire2io6Mapper5clearEv@Base 0.2.4-7
 _ZN6marisa8grimoire2io6Mapper5open_EPKc@Base 0.2.4-7
 _ZN6marisa8grimoire2io6Mapper5open_EPKvm@Base 0.2.4-7
 _ZN6marisa8grimoire2io6Mapper8map_dataEm@Base 0.2.4-7
 _ZN6marisa8grimoire2io6MapperC1Ev@Base 0.2.4-7
 _ZN6marisa8grimoire2io6MapperC2Ev@Base 0.2.4-7
 _ZN6marisa8grimoire2io6MapperD1Ev@Base 0.2.4-7
 _ZN6marisa8grimoire2io6MapperD2Ev@Base 0.2.4-7
 _ZN6marisa8grimoire2io6Reader4openEP8_IO_FILE@Base 0.2.4-7
 _ZN6marisa8grimoire2io6Reader4openEPKc@Base 0.2.4-7
 _ZN6marisa8grimoire2io6Reader4openERSi@Base 0.2.4-7
 _ZN6marisa8grimoire2io6Reader4openEi@Base 0.2.4-7
 _ZN6marisa8grimoire2io6Reader4seekEm@Base 0.2.4-7
 _ZN6marisa8grimoire2io6Reader4swapERS2_@Base 0.2.4-7
 _ZN6marisa8grimoire2io6Reader5clearEv@Base 0.2.4-7
 _ZN6marisa8grimoire2io6Reader5open_EP8_IO_FILE@Base 0.2.4-7
 _ZN6marisa8grimoire2io6Reader5open_EPKc@Base 0.2.4-7
 _ZN6marisa8grimoire2io6Reader5open_ERSi@Base 0.2.4-7
 _ZN6marisa8grimoire2io6Reader5open_Ei@Base 0.2.4-7
 _ZN6marisa8grimoire2io6Reader9read_dataEPvm@Base 0.2.4-7
 _ZN6marisa8grimoire2io6ReaderC1Ev@Base 0.2.4-7
 _ZN6marisa8grimoire2io6ReaderC2Ev@Base 0.2.4-7
 _ZN6marisa8grimoire2io6ReaderD1Ev@Base 0.2.4-7
 _ZN6marisa8grimoire2io6ReaderD2Ev@Base 0.2.4-7
 _ZN6marisa8grimoire2io6Writer10write_dataEPKvm@Base 0.2.4-7
 _ZN6marisa8grimoire2io6Writer4openEP8_IO_FILE@Base 0.2.4-7
 _ZN6marisa8grimoire2io6Writer4openEPKc@Base 0.2.4-7
 _ZN6marisa8grimoire2io6Writer4openERSo@Base 0.2.4-7
 _ZN6marisa8grimoire2io6Writer4openEi@Base 0.2.4-7
 _ZN6marisa8grimoire2io6Writer4seekEm@Base 0.2.4-7
 _ZN6marisa8grimoire2io6Writer4swapERS2_@Base 0.2.4-7
 _ZN6marisa8grimoire2io6Writer5clearEv@Base 0.2.4-7
 _ZN6marisa8grimoire2io6Writer5open_EP8_IO_FILE@Base 0.2.4-7
 _ZN6marisa8grimoire2io6Writer5open_EPKc@Base 0.2.4-7
 _ZN6marisa8grimoire2io6Writer5open_ERSo@Base 0.2.4-7
 _ZN6marisa8grimoire2io6Writer5open_Ei@Base 0.2.4-7
 _ZN6marisa8grimoire2io6WriterC1Ev@Base 0.2.4-7
 _ZN6marisa8grimoire2io6WriterC2Ev@Base 0.2.4-7
 _ZN6marisa8grimoire2io6WriterD1Ev@Base 0.2.4-7
 _ZN6marisa8grimoire2io6WriterD2Ev@Base 0.2.4-7
 _ZN6marisa8grimoire4trie4Tail3mapERNS0_2io6MapperE@Base 0.2.4-7
 _ZN6marisa8grimoire4trie4Tail4map_ERNS0_2io6MapperE@Base 0.2.4-7
 _ZN6marisa8grimoire4trie4Tail4readERNS0_2io6ReaderE@Base 0.2.4-7
 _ZN6marisa8grimoire4trie4Tail4swapERS2_@Base 0.2.4-7
 _ZN6marisa8grimoire4trie4Tail5buildERNS0_6vector6VectorINS1_5EntryEEEPNS4_IjEE17marisa_tail_mode_@Base 0.2.4-7
 _ZN6marisa8grimoire4trie4Tail5clearEv@Base 0.2.4-7
 _ZN6marisa8grimoire4trie4Tail5read_ERNS0_2io6ReaderE@Base 0.2.4-7
 _ZN6marisa8grimoire4trie4Tail6build_ERNS0_6vector6VectorINS1_5EntryEEEPNS4_IjEE17marisa_tail_mode_@Base 0.2.4-7
 _ZN6marisa8grimoire4trie4TailC1Ev@Base 0.2.4-7
 _ZN6marisa8grimoire4trie4TailC2Ev@Base 0.2.4-7
 _ZN6marisa8grimoire4trie6Config5parseEi@Base 0.2.4-7
 _ZN6marisa8grimoire4trie9LoudsTrie10build_trieINS1_10ReverseKeyEEEvRNS0_6vector6VectorIT_EEPNS6_IjEERKNS1_6ConfigEm@Base 0.2.4-7
 _ZN6marisa8grimoire4trie9LoudsTrie10build_trieINS1_3KeyEEEvRNS0_6vector6VectorIT_EEPNS6_IjEERKNS1_6ConfigEm@Base 0.2.4-7
 _ZN6marisa8grimoire4trie9LoudsTrie10fill_cacheEv@Base 0.2.4-7
 _ZN6marisa8grimoire4trie9LoudsTrie13reserve_cacheERKNS1_6ConfigEmm@Base 0.2.4-7
 _ZN6marisa8grimoire4trie9LoudsTrie15build_next_trieINS1_10ReverseKeyEEEvRNS0_6vector6VectorIT_EEPNS6_IjEERKNS1_6ConfigEm@Base 0.2.4-7
 _ZN6marisa8grimoire4trie9LoudsTrie15build_next_trieINS1_3KeyEEEvRNS0_6vector6VectorIT_EEPNS6_IjEERKNS1_6ConfigEm@Base 0.2.4-7
 _ZN6marisa8grimoire4trie9LoudsTrie18build_current_trieINS1_10ReverseKeyEEEvRNS0_6vector6VectorIT_EEPNS6_IjEERKNS1_6ConfigEm@Base 0.2.4-7
 _ZN6marisa8grimoire4trie9LoudsTrie18build_current_trieINS1_3KeyEEEvRNS0_6vector6VectorIT_EEPNS6_IjEERKNS1_6ConfigEm@Base 0.2.4-7
 _ZN6marisa8grimoire4trie9LoudsTrie3mapERNS0_2io6MapperE@Base 0.2.4-7
 _ZN6marisa8grimoire4trie9LoudsTrie4map_ERNS0_2io6MapperE@Base 0.2.4-7
 _ZN6marisa8grimoire4trie9LoudsTrie4readERNS0_2io6ReaderE@Base 0.2.4-7
 _ZN6marisa8grimoire4trie9LoudsTrie4swapERS2_@Base 0.2.4-7
 _ZN6marisa8grimoire4trie9LoudsTrie5buildERNS_6KeysetEi@Base 0.2.4-7
 _ZN6marisa8grimoire4trie9LoudsTrie5cacheINS1_10ReverseKeyEEEvmmfc@Base 0.2.4-7
 _ZN6marisa8grimoire4trie9LoudsTrie5cacheINS1_3KeyEEEvmmfc@Base 0.2.4-7
 _ZN6marisa8grimoire4trie9LoudsTrie5clearEv@Base 0.2.4-7
 _ZN6marisa8grimoire4trie9LoudsTrie5read_ERNS0_2io6ReaderE@Base 0.2.4-7
 _ZN6marisa8grimoire4trie9LoudsTrie6build_ERNS_6KeysetERKNS1_6ConfigE@Base 0.2.4-7
 _ZN6marisa8grimoire4trie9LoudsTrieC1Ev@Base 0.2.4-7
 _ZN6marisa8grimoire4trie9LoudsTrieC2Ev@Base 0.2.4-7
 _ZN6marisa8grimoire4trie9LoudsTrieD1Ev@Base 0.2.4-7
 _ZN6marisa8grimoire4trie9LoudsTrieD2Ev@Base 0.2.4-7
 _ZN6marisa8grimoire6vector10FlatVector5buildERKNS1_6VectorIjEE@Base 0.2.4-7
 _ZN6marisa8grimoire6vector6VectorINS0_4trie10ReverseKeyEED1Ev@Base 0.2.4-7
 _ZN6marisa8grimoire6vector6VectorINS0_4trie10ReverseKeyEED2Ev@Base 0.2.4-7
 _ZN6marisa8grimoire6vector6VectorINS0_4trie13WeightedRangeEE5clearEv@Base 0.2.4-7
 _ZN6marisa8grimoire6vector6VectorINS0_4trie13WeightedRangeEE9push_backERKS4_@Base 0.2.4-7
 _ZN6marisa8grimoire6vector6VectorINS0_4trie13WeightedRangeEED1Ev@Base 0.2.4-7
 _ZN6marisa8grimoire6vector6VectorINS0_4trie13WeightedRangeEED2Ev@Base 0.2.4-7
 _ZN6marisa8grimoire6vector6VectorINS0_4trie3KeyEED1Ev@Base 0.2.4-7
 _ZN6marisa8grimoire6vector6VectorINS0_4trie3KeyEED2Ev@Base 0.2.4-7
 _ZN6marisa8grimoire6vector6VectorINS0_4trie5CacheEED1Ev@Base 0.2.4-7
 _ZN6marisa8grimoire6vector6VectorINS0_4trie5CacheEED2Ev@Base 0.2.4-7
 _ZN6marisa8grimoire6vector6VectorINS0_4trie5EntryEED1Ev@Base 0.2.4-7
 _ZN6marisa8grimoire6vector6VectorINS0_4trie5EntryEED2Ev@Base 0.2.4-7
 _ZN6marisa8grimoire6vector6VectorINS0_4trie7HistoryEE7reserveEm@Base 0.2.4-7
 _ZN6marisa8grimoire6vector6VectorINS0_4trie7HistoryEE9push_backERKS4_@Base 0.2.4-7
 _ZN6marisa8grimoire6vector6VectorINS1_9RankIndexEED1Ev@Base 0.2.4-7
 _ZN6marisa8grimoire6vector6VectorINS1_9RankIndexEED2Ev@Base 0.2.4-7
 _ZN6marisa8grimoire6vector6VectorIcE7reserveEm@Base 0.2.4-7
 _ZN6marisa8grimoire6vector6VectorIcE9push_backERKc@Base 0.2.4-7
 _ZN6marisa8grimoire6vector6VectorIcED1Ev@Base 0.2.4-7
 _ZN6marisa8grimoire6vector6VectorIcED2Ev@Base 0.2.4-7
 _ZN6marisa8grimoire6vector6VectorIhE6shrinkEv@Base 0.2.4-7
 _ZN6marisa8grimoire6vector6VectorIhE9push_backERKh@Base 0.2.4-7
 _ZN6marisa8grimoire6vector6VectorIhED1Ev@Base 0.2.4-7
 _ZN6marisa8grimoire6vector6VectorIhED2Ev@Base 0.2.4-7
 _ZN6marisa8grimoire6vector6VectorIjE4readERNS0_2io6ReaderE@Base 0.2.4-7
 _ZN6marisa8grimoire6vector6VectorIjED1Ev@Base 0.2.4-7
 _ZN6marisa8grimoire6vector6VectorIjED2Ev@Base 0.2.4-7
 _ZN6marisa8grimoire6vector6VectorImE4readERNS0_2io6ReaderE@Base 0.2.4-7
 _ZN6marisa8grimoire6vector6VectorImED1Ev@Base 0.2.4-7
 _ZN6marisa8grimoire6vector6VectorImED2Ev@Base 0.2.4-7
 _ZN6marisa8grimoire6vector9BitVector11build_indexERKS2_bb@Base 0.2.4-7
 _ZN6marisa8grimoire6vector9BitVector3mapERNS0_2io6MapperE@Base 0.2.4-7
 _ZN6marisa8grimoire6vector9BitVector4readERNS0_2io6ReaderE@Base 0.2.4-7
 _ZN6marisa8grimoire6vector9BitVector5buildEbb@Base 0.2.4-7
 _ZN6marisa8grimoire6vector9BitVector9push_backEb@Base 0.2.4-7
 _ZN6marisa8grimoire6vector9BitVectorD1Ev@Base 0.2.4-7
 _ZN6marisa8grimoire6vector9BitVectorD2Ev@Base 0.2.4-7
 _ZN6marisa8grimoire9algorithm7details14insertion_sortIPNS0_4trie10ReverseKeyEEEmT_S7_m@Base 0.2.4-7
 _ZN6marisa8grimoire9algorithm7details14insertion_sortIPNS0_4trie3KeyEEEmT_S7_m@Base 0.2.4-7
 _ZN6marisa8grimoire9algorithm7details14insertion_sortIPNS0_4trie5EntryEEEmT_S7_m@Base 0.2.4-7
 _ZN6marisa8grimoire9algorithm7details4sortIPNS0_4trie10ReverseKeyEEEmT_S7_m@Base 0.2.4-7
 _ZN6marisa8grimoire9algorithm7details4sortIPNS0_4trie3KeyEEEmT_S7_m@Base 0.2.4-7
 _ZN6marisa8grimoire9algorithm7details4sortIPNS0_4trie5EntryEEEmT_S7_m@Base 0.2.4-7
 _ZN6marisa9ExceptionD0Ev@Base 0.2.4-7
 _ZN6marisa9ExceptionD1Ev@Base 0.2.4-7
 _ZN6marisa9ExceptionD2Ev@Base 0.2.4-7
 _ZN6marisalsERSoRKNS_4TrieE@Base 0.2.4-7
 _ZN6marisarsERSiRNS_4TrieE@Base 0.2.4-7
 _ZNK6marisa4Trie10node_orderEv@Base 0.2.4-7
 _ZNK6marisa4Trie10total_sizeEv@Base 0.2.4-7
 _ZNK6marisa4Trie14reverse_lookupERNS_5AgentE@Base 0.2.4-7
 _ZNK6marisa4Trie17predictive_searchERNS_5AgentE@Base 0.2.4-7
 _ZNK6marisa4Trie20common_prefix_searchERNS_5AgentE@Base 0.2.4-7
 _ZNK6marisa4Trie4saveEPKc@Base 0.2.4-7
 _ZNK6marisa4Trie4sizeEv@Base 0.2.4-7
 _ZNK6marisa4Trie5emptyEv@Base 0.2.4-7
 _ZNK6marisa4Trie5writeEi@Base 0.2.4-7
 _ZNK6marisa4Trie6lookupERNS_5AgentE@Base 0.2.4-7
 _ZNK6marisa4Trie7io_sizeEv@Base 0.2.4-7
 _ZNK6marisa4Trie8num_keysEv@Base 0.2.4-7
 _ZNK6marisa4Trie9num_nodesEv@Base 0.2.4-7
 _ZNK6marisa4Trie9num_triesEv@Base 0.2.4-7
 _ZNK6marisa4Trie9tail_modeEv@Base 0.2.4-7
 _ZNK6marisa8grimoire2io6Mapper7is_openEv@Base 0.2.4-7
 _ZNK6marisa8grimoire2io6Reader7is_openEv@Base 0.2.4-7
 _ZNK6marisa8grimoire2io6Writer7is_openEv@Base 0.2.4-7
 _ZNK6marisa8grimoire4trie4Tail12prefix_matchERNS_5AgentEm@Base 0.2.4-7
 _ZNK6marisa8grimoire4trie4Tail5matchERNS_5AgentEm@Base 0.2.4-7
 _ZNK6marisa8grimoire4trie4Tail5writeERNS0_2io6WriterE@Base 0.2.4-7
 _ZNK6marisa8grimoire4trie4Tail6write_ERNS0_2io6WriterE@Base 0.2.4-7
 _ZNK6marisa8grimoire4trie4Tail7restoreERNS_5AgentEm@Base 0.2.4-7
 _ZNK6marisa8grimoire4trie9LoudsTrie10find_childERNS_5AgentE@Base 0.2.4-7
 _ZNK6marisa8grimoire4trie9LoudsTrie10total_sizeEv@Base 0.2.4-7
 _ZNK6marisa8grimoire4trie9LoudsTrie13prefix_match_ERNS_5AgentEm@Base 0.2.4-7
 _ZNK6marisa8grimoire4trie9LoudsTrie14reverse_lookupERNS_5AgentE@Base 0.2.4-7
 _ZNK6marisa8grimoire4trie9LoudsTrie15build_terminalsINS1_10ReverseKeyEEEvRKNS0_6vector6VectorIT_EEPNS6_IjEE@Base 0.2.4-7
 _ZNK6marisa8grimoire4trie9LoudsTrie15build_terminalsINS1_3KeyEEEvRKNS0_6vector6VectorIT_EEPNS6_IjEE@Base 0.2.4-7
 _ZNK6marisa8grimoire4trie9LoudsTrie17predictive_searchERNS_5AgentE@Base 0.2.4-7
 _ZNK6marisa8grimoire4trie9LoudsTrie20common_prefix_searchERNS_5AgentE@Base 0.2.4-7
 _ZNK6marisa8grimoire4trie9LoudsTrie5writeERNS0_2io6WriterE@Base 0.2.4-7
 _ZNK6marisa8grimoire4trie9LoudsTrie6lookupERNS_5AgentE@Base 0.2.4-7
 _ZNK6marisa8grimoire4trie9LoudsTrie6match_ERNS_5AgentEm@Base 0.2.4-7
 _ZNK6marisa8grimoire4trie9LoudsTrie6write_ERNS0_2io6WriterE@Base 0.2.4-7
 _ZNK6marisa8grimoire4trie9LoudsTrie7io_sizeEv@Base 0.2.4-7
 _ZNK6marisa8grimoire4trie9LoudsTrie8restore_ERNS_5AgentEm@Base 0.2.4-7
 _ZNK6marisa8grimoire6vector9BitVector5rank1Em@Base 0.2.4-7
 _ZNK6marisa8grimoire6vector9BitVector6write_ERNS0_2io6WriterE@Base 0.2.4-7
 _ZNK6marisa8grimoire6vector9BitVector7select0Em@Base 0.2.4-7
 _ZNK6marisa8grimoire6vector9BitVector7select1Em@Base 0.2.4-7
 _ZNK6marisa9Exception4whatEv@Base 0.2.4-7
 _ZNSt11_Deque_baseIN6marisa8grimoire4trie5RangeESaIS3_EE17_M_initialize_mapEm@Base 0.2.4-7
 _ZNSt11_Deque_baseIN6marisa8grimoire4trie5RangeESaIS3_EED1Ev@Base 0.2.4-7
 _ZNSt11_Deque_baseIN6marisa8grimoire4trie5RangeESaIS3_EED2Ev@Base 0.2.4-7
 _ZNSt17_Temporary_bufferIPN6marisa8grimoire4trie13WeightedRangeES3_EC1ES4_S4_@Base 0.2.4-7
 _ZNSt17_Temporary_bufferIPN6marisa8grimoire4trie13WeightedRangeES3_EC2ES4_S4_@Base 0.2.4-7
 _ZNSt5dequeIN6marisa8grimoire4trie5RangeESaIS3_EE9push_backERKS3_@Base 0.2.4-7
 _ZNSt5dequeIN6marisa8grimoire4trie5RangeESaIS3_EEC1ERKS5_@Base 0.2.4-7
 _ZNSt5dequeIN6marisa8grimoire4trie5RangeESaIS3_EEC2ERKS5_@Base 0.2.4-7
 _ZSt12__move_mergeIPN6marisa8grimoire4trie13WeightedRangeES4_N9__gnu_cxx5__ops15_Iter_comp_iterISt7greaterIS3_EEEET0_T_SC_SC_SC_SB_T1_@Base 0.2.4-7
 _ZSt13__adjust_heapIPSt4pairIjjElS1_N9__gnu_cxx5__ops15_Iter_less_iterEEvT_T0_S7_T1_T2_@Base 0.2.4-7
 _ZSt13__stable_sortIPN6marisa8grimoire4trie13WeightedRangeEN9__gnu_cxx5__ops15_Iter_comp_iterISt7greaterIS3_EEEEvT_SB_T0_@Base 0.2.4-7
 _ZSt16__merge_adaptiveIPN6marisa8grimoire4trie13WeightedRangeElS4_N9__gnu_cxx5__ops15_Iter_comp_iterISt7greaterIS3_EEEEvT_SB_SB_T0_SC_T1_SC_T2_@Base 0.2.4-7
 _ZSt17__merge_sort_loopIPN6marisa8grimoire4trie13WeightedRangeES4_lN9__gnu_cxx5__ops15_Iter_comp_iterISt7greaterIS3_EEEEvT_SB_T0_T1_T2_@Base 0.2.4-7
 _ZSt17__rotate_adaptiveIPN6marisa8grimoire4trie13WeightedRangeES4_lET_S5_S5_S5_T1_S6_T0_S6_@Base 0.2.4-7
 _ZSt21__inplace_stable_sortIPN6marisa8grimoire4trie13WeightedRangeEN9__gnu_cxx5__ops15_Iter_comp_iterISt7greaterIS3_EEEEvT_SB_T0_@Base 0.2.4-7
 _ZSt22__merge_without_bufferIPN6marisa8grimoire4trie13WeightedRangeElN9__gnu_cxx5__ops15_Iter_comp_iterISt7greaterIS3_EEEEvT_SB_SB_T0_SC_T1_@Base 0.2.4-7
 _ZSt22__stable_sort_adaptiveIPN6marisa8grimoire4trie13WeightedRangeES4_lN9__gnu_cxx5__ops15_Iter_comp_iterISt7greaterIS3_EEEEvT_SB_T0_T1_T2_@Base 0.2.4-7
 _ZSt24__merge_sort_with_bufferIPN6marisa8grimoire4trie13WeightedRangeES4_N9__gnu_cxx5__ops15_Iter_comp_iterISt7greaterIS3_EEEEvT_SB_T0_T1_@Base 0.2.4-7
 _ZTIN6marisa9ExceptionE@Base 0.2.4-7
 _ZTSN6marisa9ExceptionE@Base 0.2.4-7
 _ZTVN6marisa9ExceptionE@Base 0.2.4-7
 _ZZN6marisa8grimoire4trie6Header10get_headerEvE3buf@Base 0.2.4-7
